target datalayout = "e-m:e-p270:32:32-p271:32:32-p272:64:64-i64:64-i128:128-f80:128-n8:16:32:64-S128"
target triple = "x86_64-pc-linux-gnu"

%struct.QTailQLink = type { ptr, ptr }
%struct.DriveInfo = type { i32, i32, i32, i32, i8, i32, ptr, %union.anon.10 }
%union.anon.10 = type { %struct.QTailQLink }

@.str = private unnamed_addr constant [22 x i8] c"qemu_in_main_thread()\00", align 1
@.str.1 = private unnamed_addr constant [19 x i8] c"../qemu/blockdev.c\00", align 1
@__PRETTY_FUNCTION__.override_max_devs = private unnamed_addr constant [48 x i8] c"void override_max_devs(BlockInterfaceType, int)\00", align 1
@stderr = external global ptr, align 8
@.str.2 = private unnamed_addr constant [114 x i8] c"Cannot override units-per-bus property of the %s interface, because a drive of that type has already been added.\0A\00", align 1
@if_name = internal constant [9 x ptr] [ptr @.str.174, ptr @.str.175, ptr @.str.176, ptr @.str.177, ptr @.str.178, ptr @.str.179, ptr @.str.180, ptr @.str.181, ptr @.str.182], align 16
@__func__.override_max_devs = private unnamed_addr constant [18 x i8] c"override_max_devs\00", align 1
@if_max_devs = internal global [9 x i32] [i32 0, i32 2, i32 7, i32 0, i32 0, i32 0, i32 0, i32 0, i32 0], align 16

; Function Attrs: nounwind sspstrong uwtable
define dso_local void @override_max_devs(i32 noundef %0, i32 noundef %1) #0 {
  %3 = alloca i32, align 4
  %4 = alloca i32, align 4
  %5 = alloca ptr, align 8
  %6 = alloca ptr, align 8
  %7 = alloca i32, align 4
  store i32 %0, ptr %3, align 4
  store i32 %1, ptr %4, align 4
  call void @llvm.lifetime.start.p0(i64 8, ptr %5) #16
  store ptr null, ptr %5, align 8, !annotation !4
  call void @llvm.lifetime.start.p0(i64 8, ptr %6) #16
  store ptr null, ptr %6, align 8, !annotation !4
  br label %8

8:                                                ; preds = %2
  %9 = call zeroext i1 @qemu_in_main_thread()
  br i1 %9, label %10, label %11

10:                                               ; preds = %8
  br label %12

11:                                               ; preds = %8
  call void @__assert_fail(ptr noundef @.str, ptr noundef @.str.1, i32 noundef 117, ptr noundef @__PRETTY_FUNCTION__.override_max_devs) #15
  unreachable

12:                                               ; preds = %10
  br label %13

13:                                               ; preds = %12
  br label %14

14:                                               ; preds = %13
  %15 = load i32, ptr %4, align 4
  %16 = icmp sle i32 %15, 0
  br i1 %16, label %17, label %18

17:                                               ; preds = %14
  store i32 1, ptr %7, align 4
  br label %50

18:                                               ; preds = %14
  %19 = call ptr @blk_next(ptr noundef null)
  store ptr %19, ptr %5, align 8
  br label %20

20:                                               ; preds = %42, %18
  %21 = load ptr, ptr %5, align 8
  %22 = icmp ne ptr %21, null
  br i1 %22, label %23, label %45

23:                                               ; preds = %20
  %24 = load ptr, ptr %5, align 8
  %25 = call ptr @blk_legacy_dinfo(ptr noundef %24)
  store ptr %25, ptr %6, align 8
  %26 = load ptr, ptr %6, align 8
  %27 = getelementptr inbounds nuw %struct.DriveInfo, ptr %26, i32 0, i32 0
  %28 = load i32, ptr %27, align 8
  %29 = load i32, ptr %3, align 4
  %30 = icmp eq i32 %28, %29
  br i1 %30, label %31, label %41

31:                                               ; preds = %23
  %32 = load ptr, ptr @stderr, align 8
  %33 = load i32, ptr %3, align 4
  %34 = sext i32 %33 to i64
  %35 = getelementptr inbounds [9 x ptr], ptr @if_name, i64 0, i64 %34
  %36 = load ptr, ptr %35, align 8
  %37 = call i32 (ptr, i32, ptr, ...) @__fprintf_chk(ptr noundef %32, i32 noundef 1, ptr noundef @.str.2, ptr noundef %36)
  br label %38

38:                                               ; preds = %31
  call void @g_assertion_message_expr(ptr noundef null, ptr noundef @.str.1, i32 noundef 129, ptr noundef @__func__.override_max_devs, ptr noundef null) #17
  unreachable

39:                                               ; No predecessors!
  br label %40

40:                                               ; preds = %39
  br label %41

41:                                               ; preds = %40, %23
  br label %42

42:                                               ; preds = %41
  %43 = load ptr, ptr %5, align 8
  %44 = call ptr @blk_next(ptr noundef %43)
  store ptr %44, ptr %5, align 8
  br label %20, !llvm.loop !5

45:                                               ; preds = %20
  %46 = load i32, ptr %4, align 4
  %47 = load i32, ptr %3, align 4
  %48 = sext i32 %47 to i64
  %49 = getelementptr inbounds [9 x i32], ptr @if_max_devs, i64 0, i64 %48
  store i32 %46, ptr %49, align 4
  store i32 0, ptr %7, align 4
  br label %50

50:                                               ; preds = %45, %17
  call void @llvm.lifetime.end.p0(i64 8, ptr %6) #16
  call void @llvm.lifetime.end.p0(i64 8, ptr %5) #16
  %51 = load i32, ptr %7, align 4
  switch i32 %51, label %53 [
    i32 0, label %52
    i32 1, label %52
  ]

52:                                               ; preds = %50, %50
  ret void

53:                                               ; preds = %50
  unreachable
}