; Function Attrs: nounwind sspstrong uwtable
define dso_local void @override_max_devs(i32 noundef %0, i32 noundef %1) local_unnamed_addr #0 {
  %3 = tail call zeroext i1 @qemu_in_main_thread() #14
  br i1 %3, label %5, label %4

4:                                                ; preds = %2
  tail call void @__assert_fail(ptr noundef nonnull @.str, ptr noundef nonnull @.str.1, i32 noundef 117, ptr noundef nonnull @__PRETTY_FUNCTION__.override_max_devs) #15
  unreachable

5:                                                ; preds = %2
  %6 = icmp slt i32 %1, 1
  br i1 %6, label %22, label %7

7:                                                ; preds = %5
  %8 = tail call ptr @blk_next(ptr noundef null) #14
  %.not10 = icmp eq ptr %8, null
  br i1 %.not10, label %._crit_edge, label %.lr.ph

.lr.ph:                                           ; preds = %7, %18
  %.011 = phi ptr [ %19, %18 ], [ %8, %7 ]
  %9 = tail call ptr @blk_legacy_dinfo(ptr noundef nonnull %.011) #14
  %10 = load i32, ptr %9, align 8
  %11 = icmp eq i32 %10, %0
  br i1 %11, label %12, label %18

12:                                               ; preds = %.lr.ph
  %13 = load ptr, ptr @stderr, align 8
  %14 = sext i32 %0 to i64
  %15 = getelementptr inbounds [9 x ptr], ptr @if_name, i64 0, i64 %14
  %16 = load ptr, ptr %15, align 8
  %17 = tail call i32 (ptr, i32, ptr, ...) @__fprintf_chk(ptr noundef %13, i32 noundef 1, ptr noundef nonnull @.str.2, ptr noundef %16) #14
  tail call void @g_assertion_message_expr(ptr noundef null, ptr noundef nonnull @.str.1, i32 noundef 129, ptr noundef nonnull @__func__.override_max_devs, ptr noundef null) #15
  unreachable

18:                                               ; preds = %.lr.ph
  %19 = tail call ptr @blk_next(ptr noundef nonnull %.011) #14
  %.not = icmp eq ptr %19, null
  br i1 %.not, label %._crit_edge, label %.lr.ph, !llvm.loop !4

._crit_edge:                                      ; preds = %18, %7
  %20 = sext i32 %0 to i64
  %21 = getelementptr inbounds [9 x i32], ptr @if_max_devs, i64 0, i64 %20
  store i32 %1, ptr %21, align 4
  br label %22

22:                                               ; preds = %5, %._crit_edge
  ret void
}